target datalayout = "e-m:e-p270:32:32-p271:32:32-p272:64:64-i64:64-i128:128-f80:128-n8:16:32:64-S128"
target triple = "x86_64-pc-linux-gnu"

; Function Attrs: nounwind uwtable
define internal i32 @Abc_LitNot(i32 noundef %0) #0 {
  %2 = alloca i32, align 4
  store i32 %0, ptr %2, align 4
  %3 = load i32, ptr %2, align 4
  %4 = xor i32 %3, 1
  ret i32 %4
}

; Function Attrs: nounwind uwtable
define void @Cba_BlastLess_rec(ptr noundef %0, ptr noundef %1, ptr noundef %2, i32 noundef %3, ptr noundef %4, ptr noundef %5) #0 {
  %7 = alloca ptr, align 8
  %8 = alloca ptr, align 8
  %9 = alloca ptr, align 8
  %10 = alloca i32, align 4
  %11 = alloca ptr, align 8
  %12 = alloca ptr, align 8
  %13 = alloca i32, align 4
  %14 = alloca i32, align 4
  %15 = alloca i32, align 4
  %16 = alloca i32, align 4
  store ptr %0, ptr %7, align 8
  store ptr %1, ptr %8, align 8
  store ptr %2, ptr %9, align 8
  store i32 %3, ptr %10, align 4
  store ptr %4, ptr %11, align 8
  store ptr %5, ptr %12, align 8
  %17 = load i32, ptr %10, align 4
  %18 = icmp sgt i32 %17, 1
  br i1 %18, label %19, label %84

19:                                               ; preds = %6
  %20 = load ptr, ptr %7, align 8
  %21 = load ptr, ptr %8, align 8
  %22 = load i32, ptr %10, align 4
  %23 = sub nsw i32 %22, 1
  %24 = sext i32 %23 to i64
  %25 = getelementptr inbounds i32, ptr %21, i64 %24
  %26 = load i32, ptr %25, align 4
  %27 = call i32 @Abc_LitNot(i32 noundef %26)
  %28 = load ptr, ptr %9, align 8
  %29 = load i32, ptr %10, align 4
  %30 = sub nsw i32 %29, 1
  %31 = sext i32 %30 to i64
  %32 = getelementptr inbounds i32, ptr %28, i64 %31
  %33 = load i32, ptr %32, align 4
  %34 = call i32 @Gia_ManHashAnd(ptr noundef %20, i32 noundef %27, i32 noundef %33)
  store i32 %34, ptr %13, align 4
  %35 = load ptr, ptr %7, align 8
  %36 = load ptr, ptr %9, align 8
  %37 = load i32, ptr %10, align 4
  %38 = sub nsw i32 %37, 1
  %39 = sext i32 %38 to i64
  %40 = getelementptr inbounds i32, ptr %36, i64 %39
  %41 = load i32, ptr %40, align 4
  %42 = call i32 @Abc_LitNot(i32 noundef %41)
  %43 = load ptr, ptr %8, align 8
  %44 = load i32, ptr %10, align 4
  %45 = sub nsw i32 %44, 1
  %46 = sext i32 %45 to i64
  %47 = getelementptr inbounds i32, ptr %43, i64 %46
  %48 = load i32, ptr %47, align 4
  %49 = call i32 @Gia_ManHashAnd(ptr noundef %35, i32 noundef %42, i32 noundef %48)
  store i32 %49, ptr %15, align 4
  %50 = load i32, ptr %13, align 4
  %51 = icmp eq i32 %50, 1
  br i1 %51, label %55, label %52

52:                                               ; preds = %19
  %53 = load i32, ptr %15, align 4
  %54 = icmp eq i32 %53, 1
  br i1 %54, label %55, label %60

55:                                               ; preds = %52, %19
  %56 = load i32, ptr %13, align 4
  %57 = load ptr, ptr %11, align 8
  store i32 %56, ptr %57, align 4
  %58 = load i32, ptr %15, align 4
  %59 = load ptr, ptr %12, align 8
  store i32 %58, ptr %59, align 4
  br label %105

60:                                               ; preds = %52
  %61 = load ptr, ptr %7, align 8
  %62 = load ptr, ptr %8, align 8
  %63 = load ptr, ptr %9, align 8
  %64 = load i32, ptr %10, align 4
  %65 = sub nsw i32 %64, 1
  call void @Cba_BlastLess_rec(ptr noundef %61, ptr noundef %62, ptr noundef %63, i32 noundef %65, ptr noundef %14, ptr noundef %16)
  %66 = load ptr, ptr %7, align 8
  %67 = load i32, ptr %13, align 4
  %68 = load ptr, ptr %7, align 8
  %69 = load i32, ptr %15, align 4
  %70 = call i32 @Abc_LitNot(i32 noundef %69)
  %71 = load i32, ptr %14, align 4
  %72 = call i32 @Gia_ManHashAnd(ptr noundef %68, i32 noundef %70, i32 noundef %71)
  %73 = call i32 @Gia_ManHashOr(ptr noundef %66, i32 noundef %67, i32 noundef %72)
  %74 = load ptr, ptr %11, align 8
  store i32 %73, ptr %74, align 4
  %75 = load ptr, ptr %7, align 8
  %76 = load i32, ptr %15, align 4
  %77 = load ptr, ptr %7, align 8
  %78 = load i32, ptr %13, align 4
  %79 = call i32 @Abc_LitNot(i32 noundef %78)
  %80 = load i32, ptr %16, align 4
  %81 = call i32 @Gia_ManHashAnd(ptr noundef %77, i32 noundef %79, i32 noundef %80)
  %82 = call i32 @Gia_ManHashOr(ptr noundef %75, i32 noundef %76, i32 noundef %81)
  %83 = load ptr, ptr %12, align 8
  store i32 %82, ptr %83, align 4
  br label %105

84:                                               ; preds = %6
  %85 = load ptr, ptr %7, align 8
  %86 = load ptr, ptr %8, align 8
  %87 = getelementptr inbounds i32, ptr %86, i64 0
  %88 = load i32, ptr %87, align 4
  %89 = call i32 @Abc_LitNot(i32 noundef %88)
  %90 = load ptr, ptr %9, align 8
  %91 = getelementptr inbounds i32, ptr %90, i64 0
  %92 = load i32, ptr %91, align 4
  %93 = call i32 @Gia_ManHashAnd(ptr noundef %85, i32 noundef %89, i32 noundef %92)
  %94 = load ptr, ptr %11, align 8
  store i32 %93, ptr %94, align 4
  %95 = load ptr, ptr %7, align 8
  %96 = load ptr, ptr %9, align 8
  %97 = getelementptr inbounds i32, ptr %96, i64 0
  %98 = load i32, ptr %97, align 4
  %99 = call i32 @Abc_LitNot(i32 noundef %98)
  %100 = load ptr, ptr %8, align 8
  %101 = getelementptr inbounds i32, ptr %100, i64 0
  %102 = load i32, ptr %101, align 4
  %103 = call i32 @Gia_ManHashAnd(ptr noundef %95, i32 noundef %99, i32 noundef %102)
  %104 = load ptr, ptr %12, align 8
  store i32 %103, ptr %104, align 4
  br label %105

105:                                              ; preds = %84, %60, %55
  ret void
}