; Function Attrs: nounwind uwtable
define void @Cba_BlastLess_rec(ptr noundef %0, ptr noundef readonly captures(none) %1, ptr noundef readonly captures(none) %2, i32 noundef %3, ptr noundef writeonly captures(none) initializes((0, 4)) %4, ptr noundef writeonly captures(none) initializes((0, 4)) %5) local_unnamed_addr #0 {
  %7 = alloca i32, align 4
  %8 = alloca i32, align 4
  %9 = icmp sgt i32 %3, 1
  br i1 %9, label %10, label %35

10:                                               ; preds = %6
  %11 = add nsw i32 %3, -1
  %12 = zext nneg i32 %11 to i64
  %13 = getelementptr inbounds nuw i32, ptr %1, i64 %12
  %14 = load i32, ptr %13, align 4
  %15 = xor i32 %14, 1
  %16 = getelementptr inbounds nuw i32, ptr %2, i64 %12
  %17 = load i32, ptr %16, align 4
  %18 = tail call i32 @Gia_ManHashAnd(ptr noundef %0, i32 noundef %15, i32 noundef %17) #20
  %19 = load i32, ptr %16, align 4
  %20 = xor i32 %19, 1
  %21 = load i32, ptr %13, align 4
  %22 = tail call i32 @Gia_ManHashAnd(ptr noundef %0, i32 noundef %20, i32 noundef %21) #20
  %23 = icmp eq i32 %18, 1
  %24 = icmp eq i32 %22, 1
  %or.cond = select i1 %23, i1 true, i1 %24
  br i1 %or.cond, label %25, label %26

25:                                               ; preds = %10
  store i32 %18, ptr %4, align 4
  br label %44

26:                                               ; preds = %10
  call void @Cba_BlastLess_rec(ptr noundef %0, ptr noundef nonnull %1, ptr noundef nonnull %2, i32 noundef %11, ptr noundef nonnull %7, ptr noundef nonnull %8)
  %27 = xor i32 %22, 1
  %28 = load i32, ptr %7, align 4
  %29 = tail call i32 @Gia_ManHashAnd(ptr noundef %0, i32 noundef %27, i32 noundef %28) #20
  %30 = tail call i32 @Gia_ManHashOr(ptr noundef %0, i32 noundef %18, i32 noundef %29) #20
  store i32 %30, ptr %4, align 4
  %31 = xor i32 %18, 1
  %32 = load i32, ptr %8, align 4
  %33 = tail call i32 @Gia_ManHashAnd(ptr noundef %0, i32 noundef %31, i32 noundef %32) #20
  %34 = tail call i32 @Gia_ManHashOr(ptr noundef %0, i32 noundef %22, i32 noundef %33) #20
  br label %44

35:                                               ; preds = %6
  %36 = load i32, ptr %1, align 4
  %37 = xor i32 %36, 1
  %38 = load i32, ptr %2, align 4
  %39 = tail call i32 @Gia_ManHashAnd(ptr noundef %0, i32 noundef %37, i32 noundef %38) #20
  store i32 %39, ptr %4, align 4
  %40 = load i32, ptr %2, align 4
  %41 = xor i32 %40, 1
  %42 = load i32, ptr %1, align 4
  %43 = tail call i32 @Gia_ManHashAnd(ptr noundef %0, i32 noundef %41, i32 noundef %42) #20
  br label %44

44:                                               ; preds = %35, %26, %25
  %.sink = phi i32 [ %43, %35 ], [ %34, %26 ], [ %22, %25 ]
  store i32 %.sink, ptr %5, align 4
  ret void
}